target datalayout = "e-m:e-p270:32:32-p271:32:32-p272:64:64-i64:64-i128:128-f80:128-n8:16:32:64-S128"
target triple = "x86_64-pc-linux-gnu"

%struct._object = type { %union.anon, ptr }
%union.anon = type { i64 }
%struct._socket_state = type { ptr, ptr, ptr, i64 }
%struct.anon = type { i32, i32 }

@PyExc_OSError = external global ptr, align 8
@.str.41 = private unnamed_addr constant [5 x i8] c"(is)\00", align 1

; Function Attrs: alwaysinline nounwind uwtable
define internal i32 @_Py_IsImmortal(ptr noundef %0) #8 {
  %2 = alloca ptr, align 8
  store ptr %0, ptr %2, align 8, !tbaa !3
  %3 = load ptr, ptr %2, align 8, !tbaa !3
  %4 = getelementptr inbounds nuw %struct._object, ptr %3, i32 0, i32 0
  %5 = getelementptr inbounds nuw %struct.anon, ptr %4, i32 0, i32 0
  %6 = load i32, ptr %5, align 8, !tbaa !35
  %7 = icmp slt i32 %6, 0
  %8 = zext i1 %7 to i32
  ret i32 %8
}

; Function Attrs: alwaysinline nounwind uwtable
define internal void @Py_DECREF(ptr noundef %0) #8 {
  %2 = alloca ptr, align 8
  store ptr %0, ptr %2, align 8, !tbaa !3
  %3 = load ptr, ptr %2, align 8, !tbaa !3
  %4 = call i32 @_Py_IsImmortal(ptr noundef %3)
  %5 = icmp ne i32 %4, 0
  br i1 %5, label %6, label %7

6:                                                ; preds = %1
  br label %16

7:                                                ; preds = %1
  %8 = load ptr, ptr %2, align 8, !tbaa !3
  %9 = getelementptr inbounds nuw %struct._object, ptr %8, i32 0, i32 0
  %10 = getelementptr inbounds nuw %struct.anon, ptr %9, i32 0, i32 0
  %11 = load i32, ptr %10, align 8, !tbaa !35
  %12 = add i32 %11, -1
  store i32 %12, ptr %10, align 8, !tbaa !35
  %13 = icmp eq i32 %12, 0
  br i1 %13, label %14, label %16

14:                                               ; preds = %7
  %15 = load ptr, ptr %2, align 8, !tbaa !3
  call void @_Py_Dealloc(ptr noundef %15)
  br label %16

16:                                               ; preds = %6, %14, %7
  ret void
}

; Function Attrs: nounwind uwtable
define internal ptr @set_error() #0 {
  %1 = load ptr, ptr @PyExc_OSError, align 8, !tbaa !3
  %2 = call ptr @PyErr_SetFromErrno(ptr noundef %1)
  ret ptr %2
}

; Function Attrs: nounwind uwtable
define internal ptr @set_gaierror(ptr noundef %0, i32 noundef %1) #0 {
  %3 = alloca ptr, align 8
  %4 = alloca ptr, align 8
  %5 = alloca i32, align 4
  %6 = alloca ptr, align 8
  %7 = alloca i32, align 4
  store ptr %0, ptr %4, align 8, !tbaa !9
  store i32 %1, ptr %5, align 4, !tbaa !15
  call void @llvm.lifetime.start.p0(i64 8, ptr %6) #10
  %8 = load i32, ptr %5, align 4, !tbaa !15
  %9 = icmp eq i32 %8, -11
  br i1 %9, label %10, label %12

10:                                               ; preds = %2
  %11 = call ptr @set_error()
  store ptr %11, ptr %3, align 8
  store i32 1, ptr %7, align 4
  br label %26

12:                                               ; preds = %2
  %13 = load i32, ptr %5, align 4, !tbaa !15
  %14 = load i32, ptr %5, align 4, !tbaa !15
  %15 = call ptr @gai_strerror(i32 noundef %14) #10
  %16 = call ptr (ptr, ...) @Py_BuildValue(ptr noundef @.str.41, i32 noundef %13, ptr noundef %15)
  store ptr %16, ptr %6, align 8, !tbaa !3
  %17 = load ptr, ptr %6, align 8, !tbaa !3
  %18 = icmp ne ptr %17, null
  br i1 %18, label %19, label %25

19:                                               ; preds = %12
  %20 = load ptr, ptr %4, align 8, !tbaa !9
  %21 = getelementptr inbounds nuw %struct._socket_state, ptr %20, i32 0, i32 2
  %22 = load ptr, ptr %21, align 8, !tbaa !18
  %23 = load ptr, ptr %6, align 8, !tbaa !3
  call void @PyErr_SetObject(ptr noundef %22, ptr noundef %23)
  %24 = load ptr, ptr %6, align 8, !tbaa !3
  call void @Py_DECREF(ptr noundef %24)
  br label %25

25:                                               ; preds = %19, %12
  store ptr null, ptr %3, align 8
  store i32 1, ptr %7, align 4
  br label %26

26:                                               ; preds = %25, %10
  call void @llvm.lifetime.end.p0(i64 8, ptr %6) #10
  %27 = load ptr, ptr %3, align 8
  ret ptr %27
}