; Function Attrs: nounwind uwtable
define internal fastcc void @set_gaierror(ptr noundef readonly captures(none) %0, i32 noundef range(i32 1, 0) %1) unnamed_addr #0 {
  %3 = icmp eq i32 %1, -11
  br i1 %3, label %4, label %7

4:                                                ; preds = %2
  %5 = load ptr, ptr @PyExc_OSError, align 8, !tbaa !19
  %6 = tail call ptr @PyErr_SetFromErrno(ptr noundef %5) #13
  br label %Py_DECREF.exit

7:                                                ; preds = %2
  %8 = tail call ptr @gai_strerror(i32 noundef %1) #13
  %9 = tail call ptr (ptr, ...) @Py_BuildValue(ptr noundef nonnull @.str.41, i32 noundef %1, ptr noundef %8) #13
  %.not = icmp eq ptr %9, null
  br i1 %.not, label %Py_DECREF.exit, label %10

10:                                               ; preds = %7
  %11 = getelementptr inbounds nuw i8, ptr %0, i64 16
  %12 = load ptr, ptr %11, align 8, !tbaa !16
  tail call void @PyErr_SetObject(ptr noundef %12, ptr noundef nonnull %9) #13
  %13 = load i32, ptr %9, align 8, !tbaa !18
  %.not.i = icmp sgt i32 %13, -1
  br i1 %.not.i, label %14, label %Py_DECREF.exit

14:                                               ; preds = %10
  %15 = add nsw i32 %13, -1
  store i32 %15, ptr %9, align 8, !tbaa !18
  %16 = icmp eq i32 %15, 0
  br i1 %16, label %17, label %Py_DECREF.exit

17:                                               ; preds = %14
  tail call void @_Py_Dealloc(ptr noundef nonnull %9) #13
  br label %Py_DECREF.exit

Py_DECREF.exit:                                   ; preds = %17, %14, %10, %7, %4
  ret void
}